target datalayout = "e-m:e-p270:32:32-p271:32:32-p272:64:64-i64:64-i128:128-f80:128-n8:16:32:64-S128"
target triple = "x86_64-pc-linux-gnu"

%struct.AVFilterPad = type { ptr, i32, i32, %union.anon, ptr, ptr, ptr }
%union.anon = type { ptr }
%struct.AVFilterContext = type { ptr, ptr, ptr, ptr, ptr, i32, ptr, ptr, i32, ptr, ptr, i32, i32, ptr, ptr, ptr, ptr, i32, ptr, i32, i32 }
%struct.EBUR128Context = type { ptr, i32, double, ptr, double, ptr, ptr, ptr, ptr, i32, i32, i32, i32, %struct.rect, %struct.rect, %struct.rect, ptr, i32, i32, i32, i32, i32, ptr, i32, ptr, i32, i32, i32, ptr, ptr, ptr, ptr, [3 x double], [3 x double], [3 x double], [3 x double], %struct.integrator, %struct.integrator, double, double, double, double, i32, i32, i32, double, i32, i32, i32 }
%struct.rect = type { i32, i32, i32, i32 }
%struct.integrator = type { ptr, i32, i32, ptr, i32, double, double, i32, ptr }

@.str.68 = private unnamed_addr constant [5 x i8] c"out0\00", align 1
@.str.69 = private unnamed_addr constant [5 x i8] c"out1\00", align 1
@.str.70 = private unnamed_addr constant [15 x i8] c"EBU +%d scale\0A\00", align 1

; Function Attrs: cold nounwind optsize uwtable
define internal i32 @init(ptr noundef %0) #0 {
  %2 = alloca i32, align 4
  %3 = alloca ptr, align 8
  %4 = alloca ptr, align 8
  %5 = alloca %struct.AVFilterPad, align 8
  %6 = alloca i32, align 4
  %7 = alloca i32, align 4
  %8 = alloca %struct.AVFilterPad, align 8
  %9 = alloca %struct.AVFilterPad, align 8
  store ptr %0, ptr %3, align 8, !tbaa !4
  call void @llvm.lifetime.start.p0(i64 8, ptr %4) #14
  %10 = load ptr, ptr %3, align 8, !tbaa !4
  %11 = getelementptr inbounds nuw %struct.AVFilterContext, ptr %10, i32 0, i32 9
  %12 = load ptr, ptr %11, align 8, !tbaa !9
  store ptr %12, ptr %4, align 8, !tbaa !22
  call void @llvm.lifetime.start.p0(i64 48, ptr %5) #14
  call void @llvm.lifetime.start.p0(i64 4, ptr %6) #14
  %13 = load ptr, ptr %4, align 8, !tbaa !22
  %14 = getelementptr inbounds nuw %struct.EBUR128Context, ptr %13, i32 0, i32 42
  %15 = load i32, ptr %14, align 8, !tbaa !24
  %16 = icmp ne i32 %15, 32
  br i1 %16, label %17, label %44

17:                                               ; preds = %1
  %18 = load ptr, ptr %4, align 8, !tbaa !22
  %19 = getelementptr inbounds nuw %struct.EBUR128Context, ptr %18, i32 0, i32 42
  %20 = load i32, ptr %19, align 8, !tbaa !24
  %21 = icmp ne i32 %20, -8
  br i1 %21, label %22, label %44

22:                                               ; preds = %17
  %23 = load ptr, ptr %4, align 8, !tbaa !22
  %24 = getelementptr inbounds nuw %struct.EBUR128Context, ptr %23, i32 0, i32 42
  %25 = load i32, ptr %24, align 8, !tbaa !24
  %26 = icmp ne i32 %25, 40
  br i1 %26, label %27, label %44

27:                                               ; preds = %22
  %28 = load ptr, ptr %4, align 8, !tbaa !22
  %29 = getelementptr inbounds nuw %struct.EBUR128Context, ptr %28, i32 0, i32 10
  %30 = load i32, ptr %29, align 4, !tbaa !34
  %31 = icmp ne i32 %30, 0
  br i1 %31, label %37, label %32

32:                                               ; preds = %27
  %33 = load ptr, ptr %4, align 8, !tbaa !22
  %34 = getelementptr inbounds nuw %struct.EBUR128Context, ptr %33, i32 0, i32 43
  %35 = load i32, ptr %34, align 4, !tbaa !35
  %36 = icmp ne i32 %35, 0
  br i1 %36, label %37, label %40

37:                                               ; preds = %32, %27
  %38 = load ptr, ptr %4, align 8, !tbaa !22
  %39 = getelementptr inbounds nuw %struct.EBUR128Context, ptr %38, i32 0, i32 42
  store i32 40, ptr %39, align 8, !tbaa !24
  br label %43

40:                                               ; preds = %32
  %41 = load ptr, ptr %4, align 8, !tbaa !22
  %42 = getelementptr inbounds nuw %struct.EBUR128Context, ptr %41, i32 0, i32 42
  store i32 32, ptr %42, align 8, !tbaa !24
  br label %43

43:                                               ; preds = %40, %37
  br label %44

44:                                               ; preds = %43, %22, %17, %1
  %45 = load ptr, ptr %4, align 8, !tbaa !22
  %46 = getelementptr inbounds nuw %struct.EBUR128Context, ptr %45, i32 0, i32 17
  %47 = load i32, ptr %46, align 8, !tbaa !36
  %48 = mul nsw i32 3, %47
  %49 = load ptr, ptr %4, align 8, !tbaa !22
  %50 = getelementptr inbounds nuw %struct.EBUR128Context, ptr %49, i32 0, i32 18
  store i32 %48, ptr %50, align 4, !tbaa !37
  %51 = call ptr @get_histogram()
  %52 = load ptr, ptr %4, align 8, !tbaa !22
  %53 = getelementptr inbounds nuw %struct.EBUR128Context, ptr %52, i32 0, i32 36
  %54 = getelementptr inbounds nuw %struct.integrator, ptr %53, i32 0, i32 8
  store ptr %51, ptr %54, align 8, !tbaa !38
  %55 = call ptr @get_histogram()
  %56 = load ptr, ptr %4, align 8, !tbaa !22
  %57 = getelementptr inbounds nuw %struct.EBUR128Context, ptr %56, i32 0, i32 37
  %58 = getelementptr inbounds nuw %struct.integrator, ptr %57, i32 0, i32 8
  store ptr %55, ptr %58, align 8, !tbaa !39
  %59 = load ptr, ptr %4, align 8, !tbaa !22
  %60 = getelementptr inbounds nuw %struct.EBUR128Context, ptr %59, i32 0, i32 36
  %61 = getelementptr inbounds nuw %struct.integrator, ptr %60, i32 0, i32 8
  %62 = load ptr, ptr %61, align 8, !tbaa !38
  %63 = icmp ne ptr %62, null
  br i1 %63, label %64, label %70

64:                                               ; preds = %44
  %65 = load ptr, ptr %4, align 8, !tbaa !22
  %66 = getelementptr inbounds nuw %struct.EBUR128Context, ptr %65, i32 0, i32 37
  %67 = getelementptr inbounds nuw %struct.integrator, ptr %66, i32 0, i32 8
  %68 = load ptr, ptr %67, align 8, !tbaa !39
  %69 = icmp ne ptr %68, null
  br i1 %69, label %71, label %70

70:                                               ; preds = %64, %44
  store i32 -12, ptr %2, align 4
  store i32 1, ptr %7, align 4
  br label %119

71:                                               ; preds = %64
  %72 = load ptr, ptr %4, align 8, !tbaa !22
  %73 = getelementptr inbounds nuw %struct.EBUR128Context, ptr %72, i32 0, i32 38
  store double -7.000000e+01, ptr %73, align 8, !tbaa !40
  %74 = load ptr, ptr %4, align 8, !tbaa !22
  %75 = getelementptr inbounds nuw %struct.EBUR128Context, ptr %74, i32 0, i32 39
  store double 0.000000e+00, ptr %75, align 8, !tbaa !41
  %76 = load ptr, ptr %4, align 8, !tbaa !22
  %77 = getelementptr inbounds nuw %struct.EBUR128Context, ptr %76, i32 0, i32 10
  %78 = load i32, ptr %77, align 4, !tbaa !34
  %79 = icmp ne i32 %78, 0
  br i1 %79, label %80, label %95

80:                                               ; preds = %71
  %81 = getelementptr inbounds nuw %struct.AVFilterPad, ptr %8, i32 0, i32 0
  store ptr @.str.68, ptr %81, align 8, !tbaa !42
  %82 = getelementptr inbounds nuw %struct.AVFilterPad, ptr %8, i32 0, i32 1
  store i32 0, ptr %82, align 8, !tbaa !44
  %83 = getelementptr inbounds nuw %struct.AVFilterPad, ptr %8, i32 0, i32 2
  store i32 0, ptr %83, align 4, !tbaa !45
  %84 = getelementptr inbounds nuw %struct.AVFilterPad, ptr %8, i32 0, i32 3
  call void @llvm.memset.p0.i64(ptr align 8 %84, i8 0, i64 8, i1 false)
  %85 = getelementptr inbounds nuw %struct.AVFilterPad, ptr %8, i32 0, i32 4
  store ptr null, ptr %85, align 8, !tbaa !46
  %86 = getelementptr inbounds nuw %struct.AVFilterPad, ptr %8, i32 0, i32 5
  store ptr null, ptr %86, align 8, !tbaa !47
  %87 = getelementptr inbounds nuw %struct.AVFilterPad, ptr %8, i32 0, i32 6
  store ptr @config_video_output, ptr %87, align 8, !tbaa !48
  call void @llvm.memcpy.p0.p0.i64(ptr align 8 %5, ptr align 8 %8, i64 48, i1 false), !tbaa.struct !49
  %88 = load ptr, ptr %3, align 8, !tbaa !4
  %89 = call i32 @ff_append_outpad(ptr noundef %88, ptr noundef %5)
  store i32 %89, ptr %6, align 4, !tbaa !51
  %90 = load i32, ptr %6, align 4, !tbaa !51
  %91 = icmp slt i32 %90, 0
  br i1 %91, label %92, label %94

92:                                               ; preds = %80
  %93 = load i32, ptr %6, align 4, !tbaa !51
  store i32 %93, ptr %2, align 4
  store i32 1, ptr %7, align 4
  br label %119

94:                                               ; preds = %80
  br label %95

95:                                               ; preds = %94, %71
  %96 = getelementptr inbounds nuw %struct.AVFilterPad, ptr %9, i32 0, i32 0
  %97 = load ptr, ptr %4, align 8, !tbaa !22
  %98 = getelementptr inbounds nuw %struct.EBUR128Context, ptr %97, i32 0, i32 10
  %99 = load i32, ptr %98, align 4, !tbaa !34
  %100 = icmp ne i32 %99, 0
  %101 = select i1 %100, ptr @.str.69, ptr @.str.68
  store ptr %101, ptr %96, align 8, !tbaa !42
  %102 = getelementptr inbounds nuw %struct.AVFilterPad, ptr %9, i32 0, i32 1
  store i32 1, ptr %102, align 8, !tbaa !44
  %103 = getelementptr inbounds nuw %struct.AVFilterPad, ptr %9, i32 0, i32 2
  store i32 0, ptr %103, align 4, !tbaa !45
  %104 = getelementptr inbounds nuw %struct.AVFilterPad, ptr %9, i32 0, i32 3
  call void @llvm.memset.p0.i64(ptr align 8 %104, i8 0, i64 8, i1 false)
  %105 = getelementptr inbounds nuw %struct.AVFilterPad, ptr %9, i32 0, i32 4
  store ptr null, ptr %105, align 8, !tbaa !46
  %106 = getelementptr inbounds nuw %struct.AVFilterPad, ptr %9, i32 0, i32 5
  store ptr null, ptr %106, align 8, !tbaa !47
  %107 = getelementptr inbounds nuw %struct.AVFilterPad, ptr %9, i32 0, i32 6
  store ptr @config_audio_output, ptr %107, align 8, !tbaa !48
  call void @llvm.memcpy.p0.p0.i64(ptr align 8 %5, ptr align 8 %9, i64 48, i1 false), !tbaa.struct !49
  %108 = load ptr, ptr %3, align 8, !tbaa !4
  %109 = call i32 @ff_append_outpad(ptr noundef %108, ptr noundef %5)
  store i32 %109, ptr %6, align 4, !tbaa !51
  %110 = load i32, ptr %6, align 4, !tbaa !51
  %111 = icmp slt i32 %110, 0
  br i1 %111, label %112, label %114

112:                                              ; preds = %95
  %113 = load i32, ptr %6, align 4, !tbaa !51
  store i32 %113, ptr %2, align 4
  store i32 1, ptr %7, align 4
  br label %119

114:                                              ; preds = %95
  %115 = load ptr, ptr %3, align 8, !tbaa !4
  %116 = load ptr, ptr %4, align 8, !tbaa !22
  %117 = getelementptr inbounds nuw %struct.EBUR128Context, ptr %116, i32 0, i32 17
  %118 = load i32, ptr %117, align 8, !tbaa !36
  call void (ptr, i32, ptr, ...) @av_log(ptr noundef %115, i32 noundef 40, ptr noundef @.str.70, i32 noundef %118)
  store i32 0, ptr %2, align 4
  store i32 1, ptr %7, align 4
  br label %119

119:                                              ; preds = %114, %112, %92, %70
  call void @llvm.lifetime.end.p0(i64 4, ptr %6) #14
  call void @llvm.lifetime.end.p0(i64 48, ptr %5) #14
  call void @llvm.lifetime.end.p0(i64 8, ptr %4) #14
  %120 = load i32, ptr %2, align 4
  ret i32 %120
}