; Function Attrs: cold nounwind optsize uwtable
define internal range(i32 -2147483648, 1) i32 @init(ptr noundef %0) #0 {
  %2 = alloca %struct.AVFilterPad, align 8
  %3 = getelementptr inbounds nuw i8, ptr %0, i64 72
  %4 = load ptr, ptr %3, align 8, !tbaa !4
  call void @llvm.lifetime.start.p0(i64 48, ptr nonnull %2) #13
  %5 = getelementptr inbounds nuw i8, ptr %4, i64 496
  %6 = load i32, ptr %5, align 8, !tbaa !20
  switch i32 %6, label %7 [
    i32 32, label %13
    i32 -8, label %13
    i32 40, label %13
  ]

7:                                                ; preds = %1
  %8 = getelementptr inbounds nuw i8, ptr %4, i64 76
  %9 = load i32, ptr %8, align 4, !tbaa !30
  %.not38 = icmp eq i32 %9, 0
  br i1 %.not38, label %10, label %.sink.split

10:                                               ; preds = %7
  %11 = getelementptr inbounds nuw i8, ptr %4, i64 500
  %12 = load i32, ptr %11, align 4, !tbaa !31
  %.not39 = icmp eq i32 %12, 0
  %spec.select = select i1 %.not39, i32 32, i32 40
  br label %.sink.split

.sink.split:                                      ; preds = %10, %7
  %.sink = phi i32 [ 40, %7 ], [ %spec.select, %10 ]
  store i32 %.sink, ptr %5, align 8, !tbaa !20
  br label %13

13:                                               ; preds = %.sink.split, %1, %1, %1
  %14 = getelementptr inbounds nuw i8, ptr %4, i64 144
  %15 = load i32, ptr %14, align 8, !tbaa !32
  %16 = mul nsw i32 %15, 3
  %17 = getelementptr inbounds nuw i8, ptr %4, i64 148
  store i32 %16, ptr %17, align 4, !tbaa !33
  %18 = tail call fastcc ptr @get_histogram()
  %19 = getelementptr inbounds nuw i8, ptr %4, i64 392
  store ptr %18, ptr %19, align 8, !tbaa !34
  %20 = tail call fastcc ptr @get_histogram()
  %21 = getelementptr inbounds nuw i8, ptr %4, i64 456
  store ptr %20, ptr %21, align 8, !tbaa !35
  %22 = load ptr, ptr %19, align 8, !tbaa !34
  %.not40 = icmp eq ptr %22, null
  %.not41 = icmp eq ptr %20, null
  %or.cond = select i1 %.not40, i1 true, i1 %.not41
  br i1 %or.cond, label %38, label %23

23:                                               ; preds = %13
  %24 = getelementptr inbounds nuw i8, ptr %4, i64 464
  store double -7.000000e+01, ptr %24, align 8, !tbaa !36
  %25 = getelementptr inbounds nuw i8, ptr %4, i64 472
  store double 0.000000e+00, ptr %25, align 8, !tbaa !37
  %26 = getelementptr inbounds nuw i8, ptr %4, i64 76
  %27 = load i32, ptr %26, align 4, !tbaa !30
  %.not42 = icmp eq i32 %27, 0
  br i1 %.not42, label %33, label %28

28:                                               ; preds = %23
  store ptr @.str.68, ptr %2, align 8, !tbaa !38
  %.sroa.22.0..sroa_idx = getelementptr inbounds nuw i8, ptr %2, i64 8
  %.sroa.77.0..sroa_idx = getelementptr inbounds nuw i8, ptr %2, i64 40
  call void @llvm.memset.p0.i64(ptr noundef nonnull align 8 dereferenceable(32) %.sroa.22.0..sroa_idx, i8 0, i64 32, i1 false)
  store ptr @config_video_output, ptr %.sroa.77.0..sroa_idx, align 8, !tbaa !39
  %29 = call i32 @ff_append_outpad(ptr noundef nonnull %0, ptr noundef nonnull %2) #13
  %30 = icmp slt i32 %29, 0
  br i1 %30, label %38, label %._crit_edge

._crit_edge:                                      ; preds = %28
  %.pre = load i32, ptr %26, align 4, !tbaa !30
  %31 = icmp eq i32 %.pre, 0
  %32 = select i1 %31, ptr @.str.68, ptr @.str.69
  br label %33

33:                                               ; preds = %._crit_edge, %23
  %.not43 = phi ptr [ %32, %._crit_edge ], [ @.str.68, %23 ]
  store ptr %.not43, ptr %2, align 8, !tbaa !38
  %.sroa.2.0..sroa_idx = getelementptr inbounds nuw i8, ptr %2, i64 8
  store i32 1, ptr %.sroa.2.0..sroa_idx, align 8, !tbaa !40
  %.sroa.3.0..sroa_idx = getelementptr inbounds nuw i8, ptr %2, i64 12
  %.sroa.7.0..sroa_idx = getelementptr inbounds nuw i8, ptr %2, i64 40
  call void @llvm.memset.p0.i64(ptr noundef nonnull align 4 dereferenceable(28) %.sroa.3.0..sroa_idx, i8 0, i64 28, i1 false)
  store ptr @config_audio_output, ptr %.sroa.7.0..sroa_idx, align 8, !tbaa !39
  %34 = call i32 @ff_append_outpad(ptr noundef nonnull %0, ptr noundef nonnull %2) #13
  %35 = icmp slt i32 %34, 0
  br i1 %35, label %38, label %36

36:                                               ; preds = %33
  %37 = load i32, ptr %14, align 8, !tbaa !32
  call void (ptr, i32, ptr, ...) @av_log(ptr noundef nonnull %0, i32 noundef 40, ptr noundef nonnull @.str.70, i32 noundef %37) #13
  br label %38

38:                                               ; preds = %33, %28, %13, %36
  %.0 = phi i32 [ 0, %36 ], [ -12, %13 ], [ %29, %28 ], [ %34, %33 ]
  call void @llvm.lifetime.end.p0(i64 48, ptr nonnull %2) #13
  ret i32 %.0
}